target datalayout = "e-m:e-p270:32:32-p271:32:32-p272:64:64-i64:64-i128:128-f80:128-n8:16:32:64-S128"
target triple = "x86_64-pc-linux-gnu"

%struct.node_stack_t = type { ptr, i64, i64, i64 }
%struct.Agobj_s = type { %struct.Agtag_s, ptr }
%struct.Agtag_s = type { i32, i64 }
%struct.dtlink_s_ = type { ptr, %union.anon.1 }
%union.anon.1 = type { ptr }
%struct.Agrec_s = type { ptr, ptr }
%struct.Agnode_s = type { %struct.Agobj_s, ptr, %struct.Agsubnode_s }
%struct.Agsubnode_s = type { %struct.dtlink_s_, %struct.dtlink_s_, ptr, ptr, ptr, ptr, ptr }
%struct.nodeinfo_t = type { %struct.Agrec_s, i8, ptr }
%struct.Agedge_s = type { %struct.Agobj_s, %struct.dtlink_s_, %struct.dtlink_s_, ptr }

@Stk = internal global %struct.node_stack_t zeroinitializer, align 8

; Function Attrs: inlinehint nounwind uwtable
define internal ptr @node_stack_get(ptr noundef %0, i64 noundef %1) #3 {
  %3 = alloca ptr, align 8
  %4 = alloca i64, align 8
  store ptr %0, ptr %3, align 8, !tbaa !51
  store i64 %1, ptr %4, align 8, !tbaa !42
  %5 = load ptr, ptr %3, align 8, !tbaa !51
  %6 = getelementptr inbounds nuw %struct.node_stack_t, ptr %5, i32 0, i32 0
  %7 = load ptr, ptr %6, align 8, !tbaa !52
  %8 = load ptr, ptr %3, align 8, !tbaa !51
  %9 = getelementptr inbounds nuw %struct.node_stack_t, ptr %8, i32 0, i32 1
  %10 = load i64, ptr %9, align 8, !tbaa !86
  %11 = load i64, ptr %4, align 8, !tbaa !42
  %12 = add i64 %10, %11
  %13 = load ptr, ptr %3, align 8, !tbaa !51
  %14 = getelementptr inbounds nuw %struct.node_stack_t, ptr %13, i32 0, i32 3
  %15 = load i64, ptr %14, align 8, !tbaa !84
  %16 = urem i64 %12, %15
  %17 = getelementptr inbounds nuw ptr, ptr %7, i64 %16
  %18 = load ptr, ptr %17, align 8, !tbaa !25
  ret ptr %18
}

; Function Attrs: inlinehint nounwind uwtable
define internal i64 @node_stack_size(ptr noundef %0) #3 {
  %2 = alloca ptr, align 8
  store ptr %0, ptr %2, align 8, !tbaa !51
  %3 = load ptr, ptr %2, align 8, !tbaa !51
  %4 = getelementptr inbounds nuw %struct.node_stack_t, ptr %3, i32 0, i32 2
  %5 = load i64, ptr %4, align 8, !tbaa !83
  ret i64 %5
}

; Function Attrs: inlinehint nounwind uwtable
define internal ptr @node_stack_pop_back(ptr noundef %0) #3 {
  %2 = alloca ptr, align 8
  %3 = alloca ptr, align 8
  store ptr %0, ptr %2, align 8, !tbaa !51
  call void @llvm.lifetime.start.p0(i64 8, ptr %3) #14
  %4 = load ptr, ptr %2, align 8, !tbaa !51
  %5 = load ptr, ptr %2, align 8, !tbaa !51
  %6 = getelementptr inbounds nuw %struct.node_stack_t, ptr %5, i32 0, i32 2
  %7 = load i64, ptr %6, align 8, !tbaa !83
  %8 = sub i64 %7, 1
  %9 = call ptr @node_stack_get(ptr noundef %4, i64 noundef %8)
  store ptr %9, ptr %3, align 8, !tbaa !25
  br label %10

10:                                               ; preds = %1
  br label %11

11:                                               ; preds = %10
  br label %12

12:                                               ; preds = %11
  %13 = load ptr, ptr %2, align 8, !tbaa !51
  %14 = getelementptr inbounds nuw %struct.node_stack_t, ptr %13, i32 0, i32 2
  %15 = load i64, ptr %14, align 8, !tbaa !83
  %16 = add i64 %15, -1
  store i64 %16, ptr %14, align 8, !tbaa !83
  %17 = load ptr, ptr %3, align 8, !tbaa !25
  call void @llvm.lifetime.end.p0(i64 8, ptr %3) #14
  ret ptr %17
}

; Function Attrs: inlinehint nounwind uwtable
define internal zeroext i1 @node_stack_is_empty(ptr noundef %0) #3 {
  %2 = alloca ptr, align 8
  store ptr %0, ptr %2, align 8, !tbaa !51
  %3 = load ptr, ptr %2, align 8, !tbaa !51
  %4 = call i64 @node_stack_size(ptr noundef %3)
  %5 = icmp eq i64 %4, 0
  ret i1 %5
}

; Function Attrs: nounwind uwtable
define internal ptr @pop() #0 {
  %1 = alloca ptr, align 8
  %2 = call zeroext i1 @node_stack_is_empty(ptr noundef @Stk)
  br i1 %2, label %3, label %4

3:                                                ; preds = %0
  store ptr null, ptr %1, align 8
  br label %6

4:                                                ; preds = %0
  %5 = call ptr @node_stack_pop_back(ptr noundef @Stk)
  store ptr %5, ptr %1, align 8
  br label %6

6:                                                ; preds = %4, %3
  %7 = load ptr, ptr %1, align 8
  ret ptr %7
}

; Function Attrs: nounwind uwtable
define internal i32 @dfs(ptr noundef %0, ptr noundef %1, ptr noundef %2) #0 {
  %4 = alloca ptr, align 8
  %5 = alloca ptr, align 8
  %6 = alloca ptr, align 8
  %7 = alloca ptr, align 8
  %8 = alloca i32, align 4
  %9 = alloca ptr, align 8
  store ptr %0, ptr %4, align 8, !tbaa !11
  store ptr %1, ptr %5, align 8, !tbaa !25
  store ptr %2, ptr %6, align 8, !tbaa !11
  call void @llvm.lifetime.start.p0(i64 8, ptr %7) #14
  call void @llvm.lifetime.start.p0(i64 4, ptr %8) #14
  store i32 0, ptr %8, align 4, !tbaa !4
  %10 = load ptr, ptr %5, align 8, !tbaa !25
  call void @push(ptr noundef %10)
  br label %11

11:                                               ; preds = %81, %3
  %12 = call ptr @pop()
  store ptr %12, ptr %5, align 8, !tbaa !25
  %13 = icmp ne ptr %12, null
  br i1 %13, label %14, label %82

14:                                               ; preds = %11
  %15 = load ptr, ptr %5, align 8, !tbaa !25
  %16 = getelementptr inbounds nuw %struct.Agnode_s, ptr %15, i32 0, i32 0
  %17 = getelementptr inbounds nuw %struct.Agobj_s, ptr %16, i32 0, i32 1
  %18 = load ptr, ptr %17, align 8, !tbaa !44
  %19 = getelementptr inbounds nuw %struct.nodeinfo_t, ptr %18, i32 0, i32 1
  store i8 1, ptr %19, align 8, !tbaa !47
  %20 = load i32, ptr %8, align 4, !tbaa !4
  %21 = add nsw i32 %20, 1
  store i32 %21, ptr %8, align 4, !tbaa !4
  %22 = load ptr, ptr %6, align 8, !tbaa !11
  %23 = load ptr, ptr %5, align 8, !tbaa !25
  %24 = call ptr @agsubnode(ptr noundef %22, ptr noundef %23, i32 noundef 1)
  call void @llvm.lifetime.start.p0(i64 8, ptr %9) #14
  %25 = load ptr, ptr %4, align 8, !tbaa !11
  %26 = load ptr, ptr %5, align 8, !tbaa !25
  %27 = call ptr @agfstedge(ptr noundef %25, ptr noundef %26)
  store ptr %27, ptr %9, align 8, !tbaa !62
  br label %28

28:                                               ; preds = %76, %14
  %29 = load ptr, ptr %9, align 8, !tbaa !62
  %30 = icmp ne ptr %29, null
  br i1 %30, label %32, label %31

31:                                               ; preds = %28
  call void @llvm.lifetime.end.p0(i64 8, ptr %9) #14
  br label %81

32:                                               ; preds = %28
  %33 = load ptr, ptr %9, align 8, !tbaa !62
  %34 = getelementptr inbounds nuw %struct.Agobj_s, ptr %33, i32 0, i32 0
  %35 = load i32, ptr %34, align 8
  %36 = and i32 %35, 3
  %37 = icmp eq i32 %36, 3
  br i1 %37, label %38, label %40

38:                                               ; preds = %32
  %39 = load ptr, ptr %9, align 8, !tbaa !62
  br label %43

40:                                               ; preds = %32
  %41 = load ptr, ptr %9, align 8, !tbaa !62
  %42 = getelementptr inbounds %struct.Agedge_s, ptr %41, i64 1
  br label %43

43:                                               ; preds = %40, %38
  %44 = phi ptr [ %39, %38 ], [ %42, %40 ]
  %45 = getelementptr inbounds nuw %struct.Agedge_s, ptr %44, i32 0, i32 3
  %46 = load ptr, ptr %45, align 8, !tbaa !64
  store ptr %46, ptr %7, align 8, !tbaa !25
  %47 = load ptr, ptr %5, align 8, !tbaa !25
  %48 = icmp eq ptr %46, %47
  br i1 %48, label %49, label %64

49:                                               ; preds = %43
  %50 = load ptr, ptr %9, align 8, !tbaa !62
  %51 = getelementptr inbounds nuw %struct.Agobj_s, ptr %50, i32 0, i32 0
  %52 = load i32, ptr %51, align 8
  %53 = and i32 %52, 3
  %54 = icmp eq i32 %53, 2
  br i1 %54, label %55, label %57

55:                                               ; preds = %49
  %56 = load ptr, ptr %9, align 8, !tbaa !62
  br label %60

57:                                               ; preds = %49
  %58 = load ptr, ptr %9, align 8, !tbaa !62
  %59 = getelementptr inbounds %struct.Agedge_s, ptr %58, i64 -1
  br label %60

60:                                               ; preds = %57, %55
  %61 = phi ptr [ %56, %55 ], [ %59, %57 ]
  %62 = getelementptr inbounds nuw %struct.Agedge_s, ptr %61, i32 0, i32 3
  %63 = load ptr, ptr %62, align 8, !tbaa !64
  store ptr %63, ptr %7, align 8, !tbaa !25
  br label %64

64:                                               ; preds = %60, %43
  %65 = load ptr, ptr %7, align 8, !tbaa !25
  %66 = getelementptr inbounds nuw %struct.Agnode_s, ptr %65, i32 0, i32 0
  %67 = getelementptr inbounds nuw %struct.Agobj_s, ptr %66, i32 0, i32 1
  %68 = load ptr, ptr %67, align 8, !tbaa !44
  %69 = getelementptr inbounds nuw %struct.nodeinfo_t, ptr %68, i32 0, i32 1
  %70 = load i8, ptr %69, align 8, !tbaa !47
  %71 = sext i8 %70 to i32
  %72 = icmp eq i32 %71, 0
  br i1 %72, label %73, label %75

73:                                               ; preds = %64
  %74 = load ptr, ptr %7, align 8, !tbaa !25
  call void @push(ptr noundef %74)
  br label %75

75:                                               ; preds = %73, %64
  br label %76

76:                                               ; preds = %75
  %77 = load ptr, ptr %4, align 8, !tbaa !11
  %78 = load ptr, ptr %9, align 8, !tbaa !62
  %79 = load ptr, ptr %5, align 8, !tbaa !25
  %80 = call ptr @agnxtedge(ptr noundef %77, ptr noundef %78, ptr noundef %79)
  store ptr %80, ptr %9, align 8, !tbaa !62
  br label %28, !llvm.loop !66

81:                                               ; preds = %31
  br label %11, !llvm.loop !67

82:                                               ; preds = %11
  %83 = load i32, ptr %8, align 4, !tbaa !4
  call void @llvm.lifetime.end.p0(i64 4, ptr %8) #14
  call void @llvm.lifetime.end.p0(i64 8, ptr %7) #14
  ret i32 %83
}