; Function Attrs: nounwind uwtable
define internal fastcc i32 @dfs(ptr noundef %0, ptr noundef %1, ptr noundef %2) unnamed_addr #11 {
  tail call fastcc void @push(ptr noundef %1)
  %4 = load i64, ptr getelementptr inbounds nuw (i8, ptr @Stk, i64 16), align 8, !tbaa !59
  %5 = icmp eq i64 %4, 0
  br i1 %5, label %pop.exit.thread, label %pop.exit

.loopexit:                                        ; preds = %83, %17
  %6 = load i64, ptr getelementptr inbounds nuw (i8, ptr @Stk, i64 16), align 8, !tbaa !59
  %7 = icmp eq i64 %6, 0
  br i1 %7, label %pop.exit.thread, label %pop.exit, !llvm.loop !60

pop.exit:                                         ; preds = %3, %.loopexit
  %8 = phi i64 [ %6, %.loopexit ], [ %4, %3 ]
  %.02031 = phi i32 [ %21, %.loopexit ], [ 0, %3 ]
  %9 = add i64 %8, -1
  %10 = load ptr, ptr @Stk, align 8, !tbaa !55
  %11 = load i64, ptr getelementptr inbounds nuw (i8, ptr @Stk, i64 8), align 8, !tbaa !61
  %12 = add i64 %11, %9
  %13 = load i64, ptr getelementptr inbounds nuw (i8, ptr @Stk, i64 24), align 8, !tbaa !62
  %14 = urem i64 %12, %13
  %15 = getelementptr inbounds nuw ptr, ptr %10, i64 %14
  %16 = load ptr, ptr %15, align 8, !tbaa !63
  store i64 %9, ptr getelementptr inbounds nuw (i8, ptr @Stk, i64 16), align 8, !tbaa !59
  %.not = icmp eq ptr %16, null
  br i1 %.not, label %pop.exit.thread, label %17

17:                                               ; preds = %pop.exit
  %18 = getelementptr inbounds nuw i8, ptr %16, i64 16
  %19 = load ptr, ptr %18, align 8, !tbaa !20
  %20 = getelementptr inbounds nuw i8, ptr %19, i64 16
  store i8 1, ptr %20, align 8, !tbaa !51
  %21 = add nuw nsw i32 %.02031, 1
  %22 = tail call ptr @agsubnode(ptr noundef %2, ptr noundef nonnull %16, i32 noundef 1) #23
  %23 = tail call ptr @agfstedge(ptr noundef %0, ptr noundef nonnull %16) #23
  %.not2429 = icmp eq ptr %23, null
  br i1 %.not2429, label %.loopexit, label %.lr.ph

.lr.ph:                                           ; preds = %17, %83
  %.030 = phi ptr [ %84, %83 ], [ %23, %17 ]
  %24 = load i32, ptr %.030, align 8
  %25 = and i32 %24, 3
  %26 = icmp eq i32 %25, 3
  %.idx = select i1 %26, i64 0, i64 64
  %27 = getelementptr inbounds nuw i8, ptr %.030, i64 %.idx
  %28 = getelementptr inbounds nuw i8, ptr %27, i64 56
  %29 = load ptr, ptr %28, align 8, !tbaa !36
  %30 = icmp eq ptr %29, %16
  br i1 %30, label %31, label %36

31:                                               ; preds = %.lr.ph
  %32 = icmp eq i32 %25, 2
  %.idx25 = select i1 %32, i64 0, i64 -64
  %33 = getelementptr inbounds i8, ptr %.030, i64 %.idx25
  %34 = getelementptr inbounds nuw i8, ptr %33, i64 56
  %35 = load ptr, ptr %34, align 8, !tbaa !36
  br label %36

36:                                               ; preds = %31, %.lr.ph
  %.021 = phi ptr [ %35, %31 ], [ %29, %.lr.ph ]
  %37 = getelementptr inbounds nuw i8, ptr %.021, i64 16
  %38 = load ptr, ptr %37, align 8, !tbaa !20
  %39 = getelementptr inbounds nuw i8, ptr %38, i64 16
  %40 = load i8, ptr %39, align 8, !tbaa !51
  %41 = icmp eq i8 %40, 0
  br i1 %41, label %42, label %83

42:                                               ; preds = %36
  store i8 -1, ptr %39, align 8, !tbaa !51
  %43 = load i64, ptr getelementptr inbounds nuw (i8, ptr @Stk, i64 16), align 8, !tbaa !59
  %44 = load i64, ptr getelementptr inbounds nuw (i8, ptr @Stk, i64 24), align 8, !tbaa !62
  %45 = icmp eq i64 %43, %44
  br i1 %45, label %46, label %._crit_edge.i.i.i.i

._crit_edge.i.i.i.i:                              ; preds = %42
  %.pre.i.i.i.i = load i64, ptr getelementptr inbounds nuw (i8, ptr @Stk, i64 8), align 8, !tbaa !61
  %.pre4.i.i.i.i = load ptr, ptr @Stk, align 8, !tbaa !55
  br label %push.exit

46:                                               ; preds = %42
  %47 = icmp eq i64 %43, 0
  %48 = shl i64 %43, 1
  %spec.select.i.i.i.i = select i1 %47, i64 1, i64 %48
  %mul.ov.i.i.i.i = icmp ugt i64 %spec.select.i.i.i.i, 2305843009213693951
  br i1 %mul.ov.i.i.i.i, label %71, label %49

49:                                               ; preds = %46
  %50 = load ptr, ptr @Stk, align 8, !tbaa !55
  %51 = shl nuw i64 %spec.select.i.i.i.i, 3
  %52 = tail call ptr @realloc(ptr noundef %50, i64 noundef %51) #28
  %53 = icmp eq ptr %52, null
  br i1 %53, label %71, label %54

54:                                               ; preds = %49
  %55 = load i64, ptr getelementptr inbounds nuw (i8, ptr @Stk, i64 24), align 8, !tbaa !62
  %56 = getelementptr inbounds nuw ptr, ptr %52, i64 %55
  %57 = sub i64 %spec.select.i.i.i.i, %55
  %58 = shl i64 %57, 3
  tail call void @llvm.memset.p0.i64(ptr nonnull align 8 %56, i8 0, i64 %58, i1 false)
  %59 = load i64, ptr getelementptr inbounds nuw (i8, ptr @Stk, i64 8), align 8, !tbaa !61
  %60 = load i64, ptr getelementptr inbounds nuw (i8, ptr @Stk, i64 16), align 8, !tbaa !59
  %61 = add i64 %60, %59
  %62 = icmp ugt i64 %61, %55
  br i1 %62, label %63, label %69

63:                                               ; preds = %54
  %64 = sub i64 %55, %59
  %65 = sub i64 %spec.select.i.i.i.i, %64
  %66 = getelementptr inbounds nuw ptr, ptr %52, i64 %65
  %67 = getelementptr inbounds nuw ptr, ptr %52, i64 %59
  %68 = shl i64 %64, 3
  tail call void @llvm.memmove.p0.p0.i64(ptr nonnull align 8 %66, ptr nonnull align 8 %67, i64 %68, i1 false)
  store i64 %65, ptr getelementptr inbounds nuw (i8, ptr @Stk, i64 8), align 8, !tbaa !61
  br label %69

69:                                               ; preds = %63, %54
  %70 = phi i64 [ %59, %54 ], [ %65, %63 ]
  store ptr %52, ptr @Stk, align 8, !tbaa !55
  store i64 %spec.select.i.i.i.i, ptr getelementptr inbounds nuw (i8, ptr @Stk, i64 24), align 8, !tbaa !62
  br label %push.exit

71:                                               ; preds = %49, %46
  %.2.i.ph.i.i.i = phi i32 [ 34, %46 ], [ 12, %49 ]
  %72 = load ptr, ptr @stderr, align 8, !tbaa !14
  %73 = tail call ptr @strerror(i32 noundef %.2.i.ph.i.i.i) #23
  %74 = tail call i32 (ptr, ptr, ...) @fprintf(ptr noundef %72, ptr noundef nonnull @.str.23, ptr noundef %73) #25
  tail call fastcc void @graphviz_exit(i32 noundef 1) #26
  unreachable

push.exit:                                        ; preds = %._crit_edge.i.i.i.i, %69
  %75 = phi ptr [ %.pre4.i.i.i.i, %._crit_edge.i.i.i.i ], [ %52, %69 ]
  %76 = phi i64 [ %44, %._crit_edge.i.i.i.i ], [ %spec.select.i.i.i.i, %69 ]
  %77 = phi i64 [ %43, %._crit_edge.i.i.i.i ], [ %60, %69 ]
  %78 = phi i64 [ %.pre.i.i.i.i, %._crit_edge.i.i.i.i ], [ %70, %69 ]
  %79 = add i64 %78, %77
  %80 = urem i64 %79, %76
  %81 = getelementptr inbounds nuw ptr, ptr %75, i64 %80
  store ptr %.021, ptr %81, align 8, !tbaa !63
  %82 = add i64 %77, 1
  store i64 %82, ptr getelementptr inbounds nuw (i8, ptr @Stk, i64 16), align 8, !tbaa !59
  br label %83

83:                                               ; preds = %36, %push.exit
  %84 = tail call ptr @agnxtedge(ptr noundef %0, ptr noundef nonnull %.030, ptr noundef nonnull %16) #23
  %.not24 = icmp eq ptr %84, null
  br i1 %.not24, label %.loopexit, label %.lr.ph, !llvm.loop !64

pop.exit.thread:                                  ; preds = %pop.exit, %.loopexit, %3
  %.020.lcssa = phi i32 [ 0, %3 ], [ %21, %.loopexit ], [ %.02031, %pop.exit ]
  ret i32 %.020.lcssa
}